; Function Attrs: mustprogress nofree nounwind uwtable
define noundef range(i32 0, 3) i32 @_ZNK8tinyxml212XMLAttribute20QueryUnsigned64ValueEPm(ptr noundef nonnull align 8 captures(none) dereferenceable(80) %0, ptr noundef writeonly captures(none) %1) local_unnamed_addr #14 align 2 {
  %3 = alloca i64, align 8
  %4 = getelementptr inbounds nuw i8, ptr %0, i64 32
  %5 = tail call noundef ptr @_ZN8tinyxml27StrPair6GetStrEv(ptr noundef nonnull align 8 dereferenceable(24) %4)
  call void @llvm.lifetime.start.p0(i64 8, ptr nonnull %3) #31
  store i64 0, ptr %3, align 8, !tbaa !34
  %6 = load i8, ptr %5, align 1, !tbaa !12
  %7 = icmp slt i8 %6, 0
  br i1 %7, label %_ZN8tinyxml27XMLUtil11IsPrefixHexEPKc.exit.thread.i, label %_ZN8tinyxml27XMLUtil12IsWhiteSpaceEc.exit.us.i.i.i

_ZN8tinyxml27XMLUtil12IsWhiteSpaceEc.exit.us.i.i.i: ; preds = %2, %10
  %.pr.i.i = phi i8 [ %12, %10 ], [ %6, %2 ]
  %.08.us.i.i.i = phi ptr [ %11, %10 ], [ %5, %2 ]
  %8 = zext nneg i8 %.pr.i.i to i32
  %9 = tail call i32 @isspace(i32 noundef %8) #33
  %.not7.us.i.i.i = icmp eq i32 %9, 0
  br i1 %.not7.us.i.i.i, label %_ZN8tinyxml27XMLUtil14SkipWhiteSpaceEPKcPi.exit.i.i, label %10

10:                                               ; preds = %_ZN8tinyxml27XMLUtil12IsWhiteSpaceEc.exit.us.i.i.i
  %11 = getelementptr inbounds nuw i8, ptr %.08.us.i.i.i, i64 1
  %12 = load i8, ptr %11, align 1, !tbaa !12
  %13 = icmp slt i8 %12, 0
  br i1 %13, label %_ZN8tinyxml27XMLUtil11IsPrefixHexEPKc.exit.thread.i, label %_ZN8tinyxml27XMLUtil12IsWhiteSpaceEc.exit.us.i.i.i, !llvm.loop !17

_ZN8tinyxml27XMLUtil14SkipWhiteSpaceEPKcPi.exit.i.i: ; preds = %_ZN8tinyxml27XMLUtil12IsWhiteSpaceEc.exit.us.i.i.i
  %14 = icmp eq i8 %.pr.i.i, 48
  br i1 %14, label %_ZN8tinyxml27XMLUtil11IsPrefixHexEPKc.exit.i, label %_ZN8tinyxml27XMLUtil11IsPrefixHexEPKc.exit.thread.i

_ZN8tinyxml27XMLUtil11IsPrefixHexEPKc.exit.i:     ; preds = %_ZN8tinyxml27XMLUtil14SkipWhiteSpaceEPKcPi.exit.i.i
  %15 = getelementptr inbounds nuw i8, ptr %.08.us.i.i.i, i64 1
  %16 = load i8, ptr %15, align 1, !tbaa !12
  %.fr5.i = freeze i8 %16
  %17 = and i8 %.fr5.i, -33
  %spec.select.i.i = icmp eq i8 %17, 88
  %spec.select.i = select i1 %spec.select.i.i, ptr @.str.16, ptr @.str.8
  br label %_ZN8tinyxml27XMLUtil11IsPrefixHexEPKc.exit.thread.i

_ZN8tinyxml27XMLUtil11IsPrefixHexEPKc.exit.thread.i: ; preds = %10, %_ZN8tinyxml27XMLUtil11IsPrefixHexEPKc.exit.i, %_ZN8tinyxml27XMLUtil14SkipWhiteSpaceEPKcPi.exit.i.i, %2
  %18 = phi ptr [ @.str.8, %_ZN8tinyxml27XMLUtil14SkipWhiteSpaceEPKcPi.exit.i.i ], [ @.str.8, %2 ], [ %spec.select.i, %_ZN8tinyxml27XMLUtil11IsPrefixHexEPKc.exit.i ], [ @.str.8, %10 ]
  %19 = call i32 (ptr, ptr, ...) @__isoc99_sscanf(ptr noundef nonnull readonly %5, ptr noundef nonnull %18, ptr noundef nonnull %3) #31
  %20 = icmp eq i32 %19, 1
  br i1 %20, label %21, label %_ZN8tinyxml27XMLUtil12ToUnsigned64EPKcPm.exit

21:                                               ; preds = %_ZN8tinyxml27XMLUtil11IsPrefixHexEPKc.exit.thread.i
  %22 = load i64, ptr %3, align 8, !tbaa !34
  store i64 %22, ptr %1, align 8, !tbaa !27
  br label %_ZN8tinyxml27XMLUtil12ToUnsigned64EPKcPm.exit

_ZN8tinyxml27XMLUtil12ToUnsigned64EPKcPm.exit:    ; preds = %_ZN8tinyxml27XMLUtil11IsPrefixHexEPKc.exit.thread.i, %21
  %. = phi i32 [ 2, %_ZN8tinyxml27XMLUtil11IsPrefixHexEPKc.exit.thread.i ], [ 0, %21 ]
  call void @llvm.lifetime.end.p0(i64 8, ptr nonnull %3) #31
  ret i32 %.
}